target datalayout = "e-m:e-p270:32:32-p271:32:32-p272:64:64-i64:64-i128:128-f80:128-n8:16:32:64-S128"
target triple = "x86_64-pc-linux-gnu"

; Function Attrs: nounwind uwtable
define i32 @parse_tuple(ptr noundef %0, i32 noundef %1, ptr noundef %2, ptr noundef %3, ptr noundef %4) #0 {
  %6 = alloca ptr, align 8
  %7 = alloca i32, align 4
  %8 = alloca ptr, align 8
  %9 = alloca ptr, align 8
  %10 = alloca ptr, align 8
  %11 = alloca ptr, align 8
  %12 = alloca ptr, align 8
  %13 = alloca i32, align 4
  %14 = alloca ptr, align 8
  %15 = alloca ptr, align 8
  %16 = alloca ptr, align 8
  %17 = alloca i32, align 4
  %18 = alloca i32, align 4
  store ptr %0, ptr %6, align 8
  store i32 %1, ptr %7, align 4
  store ptr %2, ptr %8, align 8
  store ptr %3, ptr %9, align 8
  store ptr %4, ptr %10, align 8
  store ptr null, ptr %11, align 8
  store ptr null, ptr %12, align 8
  store i32 0, ptr %13, align 4
  store ptr null, ptr %14, align 8
  store ptr null, ptr %15, align 8
  store ptr null, ptr %16, align 8
  store i32 0, ptr %17, align 4
  store i32 2, ptr %18, align 4
  %19 = load ptr, ptr %6, align 8
  %20 = getelementptr inbounds i8, ptr %19, i64 0
  %21 = load i8, ptr %20, align 1
  %22 = sext i8 %21 to i32
  %23 = icmp ne i32 %22, 40
  br i1 %23, label %24, label %25

24:                                               ; preds = %5
  store i32 -1, ptr %17, align 4
  br label %184

25:                                               ; preds = %5
  br label %26

26:                                               ; preds = %34, %25
  %27 = load ptr, ptr %6, align 8
  %28 = load i32, ptr %13, align 4
  %29 = zext i32 %28 to i64
  %30 = getelementptr inbounds i8, ptr %27, i64 %29
  %31 = load i8, ptr %30, align 1
  %32 = sext i8 %31 to i32
  %33 = icmp ne i32 %32, 0
  br i1 %33, label %34, label %37

34:                                               ; preds = %26
  %35 = load i32, ptr %13, align 4
  %36 = add i32 %35, 1
  store i32 %36, ptr %13, align 4
  br label %26

37:                                               ; preds = %26
  %38 = load ptr, ptr %6, align 8
  %39 = load i32, ptr %13, align 4
  %40 = sub i32 %39, 1
  %41 = zext i32 %40 to i64
  %42 = getelementptr inbounds i8, ptr %38, i64 %41
  %43 = load i8, ptr %42, align 1
  %44 = sext i8 %43 to i32
  %45 = icmp ne i32 %44, 41
  br i1 %45, label %46, label %47

46:                                               ; preds = %37
  store i32 -1, ptr %17, align 4
  br label %184

47:                                               ; preds = %37
  store i32 0, ptr %13, align 4
  %48 = load i32, ptr %18, align 4
  %49 = add i32 %48, 1
  %50 = zext i32 %49 to i64
  %51 = mul i64 8, %50
  %52 = call noalias ptr @malloc(i64 noundef %51) #16
  store ptr %52, ptr %14, align 8
  %53 = load ptr, ptr %14, align 8
  %54 = icmp eq ptr %53, null
  br i1 %54, label %55, label %56

55:                                               ; preds = %47
  store i32 -1, ptr %17, align 4
  br label %184

56:                                               ; preds = %47
  %57 = load ptr, ptr %6, align 8
  %58 = getelementptr inbounds i8, ptr %57, i32 1
  store ptr %58, ptr %6, align 8
  %59 = load ptr, ptr %6, align 8
  %60 = call i64 @strlen(ptr noundef %59) #15
  %61 = mul i64 1, %60
  %62 = call noalias ptr @malloc(i64 noundef %61) #16
  store ptr %62, ptr %16, align 8
  %63 = load ptr, ptr %16, align 8
  %64 = icmp eq ptr %63, null
  br i1 %64, label %65, label %66

65:                                               ; preds = %56
  store i32 -1, ptr %17, align 4
  br label %184

66:                                               ; preds = %56
  %67 = load ptr, ptr %16, align 8
  store ptr %67, ptr %12, align 8
  %68 = load ptr, ptr %16, align 8
  store ptr %68, ptr %11, align 8
  %69 = load ptr, ptr %11, align 8
  %70 = load ptr, ptr %14, align 8
  %71 = load i32, ptr %13, align 4
  %72 = add i32 %71, 1
  store i32 %72, ptr %13, align 4
  %73 = zext i32 %71 to i64
  %74 = getelementptr inbounds ptr, ptr %70, i64 %73
  store ptr %69, ptr %74, align 8
  br label %75

75:                                               ; preds = %171, %66
  %76 = load ptr, ptr %6, align 8
  %77 = load i8, ptr %76, align 1
  %78 = sext i8 %77 to i32
  %79 = icmp ne i32 %78, 0
  br i1 %79, label %80, label %172

80:                                               ; preds = %75
  %81 = load ptr, ptr %6, align 8
  %82 = load i8, ptr %81, align 1
  %83 = sext i8 %82 to i32
  %84 = icmp eq i32 %83, 92
  br i1 %84, label %85, label %113

85:                                               ; preds = %80
  %86 = load ptr, ptr %6, align 8
  %87 = getelementptr inbounds i8, ptr %86, i64 1
  %88 = load i8, ptr %87, align 1
  %89 = sext i8 %88 to i32
  %90 = icmp eq i32 %89, 92
  br i1 %90, label %98, label %91

91:                                               ; preds = %85
  %92 = load ptr, ptr %6, align 8
  %93 = getelementptr inbounds i8, ptr %92, i64 1
  %94 = load i8, ptr %93, align 1
  %95 = sext i8 %94 to i32
  %96 = load i32, ptr %7, align 4
  %97 = icmp eq i32 %95, %96
  br i1 %97, label %98, label %106

98:                                               ; preds = %91, %85
  %99 = load ptr, ptr %6, align 8
  %100 = getelementptr inbounds i8, ptr %99, i32 1
  store ptr %100, ptr %6, align 8
  %101 = load ptr, ptr %6, align 8
  %102 = getelementptr inbounds i8, ptr %101, i32 1
  store ptr %102, ptr %6, align 8
  %103 = load i8, ptr %101, align 1
  %104 = load ptr, ptr %12, align 8
  %105 = getelementptr inbounds i8, ptr %104, i32 1
  store ptr %105, ptr %12, align 8
  store i8 %103, ptr %104, align 1
  br label %112

106:                                              ; preds = %91
  %107 = load ptr, ptr %6, align 8
  %108 = getelementptr inbounds i8, ptr %107, i32 1
  store ptr %108, ptr %6, align 8
  %109 = load i8, ptr %107, align 1
  %110 = load ptr, ptr %12, align 8
  %111 = getelementptr inbounds i8, ptr %110, i32 1
  store ptr %111, ptr %12, align 8
  store i8 %109, ptr %110, align 1
  br label %112

112:                                              ; preds = %106, %98
  br label %171

113:                                              ; preds = %80
  %114 = load ptr, ptr %6, align 8
  %115 = load i8, ptr %114, align 1
  %116 = sext i8 %115 to i32
  %117 = load i32, ptr %7, align 4
  %118 = icmp eq i32 %116, %117
  br i1 %118, label %119, label %149

119:                                              ; preds = %113
  %120 = load ptr, ptr %12, align 8
  %121 = getelementptr inbounds i8, ptr %120, i32 1
  store ptr %121, ptr %12, align 8
  store i8 0, ptr %120, align 1
  %122 = load ptr, ptr %6, align 8
  %123 = getelementptr inbounds i8, ptr %122, i32 1
  store ptr %123, ptr %6, align 8
  %124 = load ptr, ptr %12, align 8
  store ptr %124, ptr %11, align 8
  %125 = load ptr, ptr %11, align 8
  %126 = load ptr, ptr %14, align 8
  %127 = load i32, ptr %13, align 4
  %128 = add i32 %127, 1
  store i32 %128, ptr %13, align 4
  %129 = zext i32 %127 to i64
  %130 = getelementptr inbounds ptr, ptr %126, i64 %129
  store ptr %125, ptr %130, align 8
  %131 = load i32, ptr %13, align 4
  %132 = load i32, ptr %18, align 4
  %133 = icmp eq i32 %131, %132
  br i1 %133, label %134, label %148

134:                                              ; preds = %119
  %135 = load i32, ptr %18, align 4
  %136 = mul i32 %135, 2
  store i32 %136, ptr %18, align 4
  %137 = load ptr, ptr %14, align 8
  %138 = load i32, ptr %18, align 4
  %139 = add i32 %138, 1
  %140 = zext i32 %139 to i64
  %141 = mul i64 8, %140
  %142 = call ptr @realloc(ptr noundef %137, i64 noundef %141) #17
  store ptr %142, ptr %15, align 8
  %143 = load ptr, ptr %15, align 8
  %144 = icmp eq ptr %143, null
  br i1 %144, label %145, label %146

145:                                              ; preds = %134
  store i32 -1, ptr %17, align 4
  br label %184

146:                                              ; preds = %134
  %147 = load ptr, ptr %15, align 8
  store ptr %147, ptr %14, align 8
  br label %148

148:                                              ; preds = %146, %119
  br label %170

149:                                              ; preds = %113
  %150 = load ptr, ptr %6, align 8
  %151 = load i8, ptr %150, align 1
  %152 = sext i8 %151 to i32
  %153 = icmp eq i32 %152, 41
  br i1 %153, label %154, label %163

154:                                              ; preds = %149
  %155 = load ptr, ptr %6, align 8
  %156 = getelementptr inbounds i8, ptr %155, i64 1
  %157 = load i8, ptr %156, align 1
  %158 = sext i8 %157 to i32
  %159 = icmp eq i32 %158, 0
  br i1 %159, label %160, label %163

160:                                              ; preds = %154
  %161 = load ptr, ptr %6, align 8
  %162 = getelementptr inbounds i8, ptr %161, i32 1
  store ptr %162, ptr %6, align 8
  br label %169

163:                                              ; preds = %154, %149
  %164 = load ptr, ptr %6, align 8
  %165 = getelementptr inbounds i8, ptr %164, i32 1
  store ptr %165, ptr %6, align 8
  %166 = load i8, ptr %164, align 1
  %167 = load ptr, ptr %12, align 8
  %168 = getelementptr inbounds i8, ptr %167, i32 1
  store ptr %168, ptr %12, align 8
  store i8 %166, ptr %167, align 1
  br label %169

169:                                              ; preds = %163, %160
  br label %170

170:                                              ; preds = %169, %148
  br label %171

171:                                              ; preds = %170, %112
  br label %75

172:                                              ; preds = %75
  %173 = load ptr, ptr %12, align 8
  store i8 0, ptr %173, align 1
  %174 = load ptr, ptr %14, align 8
  %175 = load i32, ptr %13, align 4
  %176 = zext i32 %175 to i64
  %177 = getelementptr inbounds ptr, ptr %174, i64 %176
  store ptr null, ptr %177, align 8
  %178 = load ptr, ptr %14, align 8
  %179 = load ptr, ptr %10, align 8
  store ptr %178, ptr %179, align 8
  %180 = load i32, ptr %13, align 4
  %181 = load ptr, ptr %9, align 8
  store i32 %180, ptr %181, align 4
  %182 = load ptr, ptr %16, align 8
  %183 = load ptr, ptr %8, align 8
  store ptr %182, ptr %183, align 8
  br label %184

184:                                              ; preds = %172, %145, %65, %55, %46, %24
  %185 = load i32, ptr %17, align 4
  %186 = icmp eq i32 %185, -1
  br i1 %186, label %187, label %198

187:                                              ; preds = %184
  %188 = load ptr, ptr %16, align 8
  %189 = icmp ne ptr %188, null
  br i1 %189, label %190, label %192

190:                                              ; preds = %187
  %191 = load ptr, ptr %16, align 8
  call void @free(ptr noundef %191) #12
  br label %192

192:                                              ; preds = %190, %187
  %193 = load ptr, ptr %14, align 8
  %194 = icmp ne ptr %193, null
  br i1 %194, label %195, label %197

195:                                              ; preds = %192
  %196 = load ptr, ptr %14, align 8
  call void @free(ptr noundef %196) #12
  br label %197

197:                                              ; preds = %195, %192
  br label %198

198:                                              ; preds = %197, %184
  %199 = load i32, ptr %17, align 4
  ret i32 %199
}