; Function Attrs: nounwind uwtable
define range(i32 -1, 1) i32 @parse_tuple(ptr noundef readonly captures(none) %0, i32 noundef %1, ptr noundef writeonly captures(none) %2, ptr noundef writeonly captures(none) %3, ptr noundef writeonly captures(none) %4) local_unnamed_addr #4 {
  %6 = load i8, ptr %0, align 1
  %.not = icmp eq i8 %6, 40
  br i1 %.not, label %.preheader, label %.thread105

.preheader:                                       ; preds = %5, %.preheader
  %.064 = phi i32 [ %10, %.preheader ], [ 0, %5 ]
  %7 = zext i32 %.064 to i64
  %8 = getelementptr inbounds nuw i8, ptr %0, i64 %7
  %9 = load i8, ptr %8, align 1
  %.not80 = icmp eq i8 %9, 0
  %10 = add i32 %.064, 1
  br i1 %.not80, label %11, label %.preheader

11:                                               ; preds = %.preheader
  %12 = add i32 %.064, -1
  %13 = zext i32 %12 to i64
  %14 = getelementptr inbounds nuw i8, ptr %0, i64 %13
  %15 = load i8, ptr %14, align 1
  %.not81 = icmp eq i8 %15, 41
  br i1 %.not81, label %16, label %.thread105

16:                                               ; preds = %11
  %17 = tail call noalias dereferenceable_or_null(24) ptr @malloc(i64 noundef 24) #28
  %18 = icmp eq ptr %17, null
  br i1 %18, label %.thread105, label %19

19:                                               ; preds = %16
  %20 = getelementptr inbounds nuw i8, ptr %0, i64 1
  %21 = tail call i64 @strlen(ptr noundef nonnull dereferenceable(1) %20) #27
  %22 = tail call noalias ptr @malloc(i64 noundef %21) #28
  %23 = icmp eq ptr %22, null
  br i1 %23, label %.thread100, label %24

24:                                               ; preds = %19
  store ptr %22, ptr %17, align 8
  br label %.outer.outer.outer

.outer.outer.outer:                               ; preds = %44, %24
  %.069.ph.ph.ph = phi ptr [ %39, %44 ], [ %20, %24 ]
  %.067.ph.ph.ph = phi ptr [ %38, %44 ], [ %22, %24 ]
  %.165.ph.ph.ph = phi i32 [ %.0.ph.ph.ph, %44 ], [ 1, %24 ]
  %.163.ph.ph.ph = phi ptr [ %49, %44 ], [ %17, %24 ]
  %.0.ph.ph.ph = phi i32 [ %45, %44 ], [ 2, %24 ]
  br label %.outer.outer

.outer.outer:                                     ; preds = %.outer.outer.outer, %37
  %.069.ph.ph = phi ptr [ %39, %37 ], [ %.069.ph.ph.ph, %.outer.outer.outer ]
  %.067.ph.ph = phi ptr [ %38, %37 ], [ %.067.ph.ph.ph, %.outer.outer.outer ]
  %.165.ph.ph = phi i32 [ %40, %37 ], [ %.165.ph.ph.ph, %.outer.outer.outer ]
  br label %.outer

.outer:                                           ; preds = %.outer.outer, %.sink.split
  %.069.ph = phi ptr [ %.170.ph, %.sink.split ], [ %.069.ph.ph, %.outer.outer ]
  %.067.ph = phi ptr [ %59, %.sink.split ], [ %.067.ph.ph, %.outer.outer ]
  br label %25

25:                                               ; preds = %.outer, %53
  %.069 = phi ptr [ %54, %53 ], [ %.069.ph, %.outer ]
  %26 = load i8, ptr %.069, align 1
  switch i8 %26, label %34 [
    i8 0, label %60
    i8 92, label %27
  ]

27:                                               ; preds = %25
  %28 = getelementptr inbounds nuw i8, ptr %.069, i64 1
  %29 = load i8, ptr %28, align 1
  %30 = icmp eq i8 %29, 92
  %31 = sext i8 %29 to i32
  %32 = icmp eq i32 %1, %31
  %or.cond = or i1 %30, %32
  %33 = getelementptr inbounds nuw i8, ptr %.069, i64 2
  %spec.select = select i1 %32, i8 %29, i8 92
  %spec.select117 = select i1 %or.cond, ptr %33, ptr %28
  br label %.sink.split

34:                                               ; preds = %25
  %35 = sext i8 %26 to i32
  %36 = icmp eq i32 %1, %35
  br i1 %36, label %37, label %51

37:                                               ; preds = %34
  %38 = getelementptr inbounds nuw i8, ptr %.067.ph, i64 1
  store i8 0, ptr %.067.ph, align 1
  %39 = getelementptr inbounds nuw i8, ptr %.069, i64 1
  %40 = add i32 %.165.ph.ph, 1
  %41 = zext i32 %.165.ph.ph to i64
  %42 = getelementptr inbounds nuw ptr, ptr %.163.ph.ph.ph, i64 %41
  store ptr %38, ptr %42, align 8
  %43 = icmp eq i32 %40, %.0.ph.ph.ph
  br i1 %43, label %44, label %.outer.outer

44:                                               ; preds = %37
  %45 = shl i32 %.0.ph.ph.ph, 1
  %46 = or disjoint i32 %45, 1
  %47 = zext i32 %46 to i64
  %48 = shl nuw nsw i64 %47, 3
  %49 = tail call ptr @realloc(ptr noundef nonnull %.163.ph.ph.ph, i64 noundef %48) #29
  %50 = icmp eq ptr %49, null
  br i1 %50, label %63, label %.outer.outer.outer

51:                                               ; preds = %34
  %52 = icmp eq i8 %26, 41
  br i1 %52, label %53, label %57

53:                                               ; preds = %51
  %54 = getelementptr inbounds nuw i8, ptr %.069, i64 1
  %55 = load i8, ptr %54, align 1
  %56 = icmp eq i8 %55, 0
  br i1 %56, label %25, label %57

57:                                               ; preds = %53, %51
  %58 = getelementptr inbounds nuw i8, ptr %.069, i64 1
  br label %.sink.split

.sink.split:                                      ; preds = %27, %57
  %.sink = phi i8 [ %26, %57 ], [ %spec.select, %27 ]
  %.170.ph = phi ptr [ %58, %57 ], [ %spec.select117, %27 ]
  %59 = getelementptr inbounds nuw i8, ptr %.067.ph, i64 1
  store i8 %.sink, ptr %.067.ph, align 1
  br label %.outer

60:                                               ; preds = %25
  store i8 0, ptr %.067.ph, align 1
  %61 = zext i32 %.165.ph.ph to i64
  %62 = getelementptr inbounds nuw ptr, ptr %.163.ph.ph.ph, i64 %61
  store ptr null, ptr %62, align 8
  store ptr %.163.ph.ph.ph, ptr %4, align 8
  store i32 %.165.ph.ph, ptr %3, align 4
  store ptr %22, ptr %2, align 8
  br label %.thread105

63:                                               ; preds = %44
  tail call void @free(ptr noundef nonnull %22) #23
  br label %.thread100

.thread100:                                       ; preds = %63, %19
  %.062.ph98103 = phi ptr [ %17, %19 ], [ %.163.ph.ph.ph, %63 ]
  tail call void @free(ptr noundef nonnull %.062.ph98103) #23
  br label %.thread105

.thread105:                                       ; preds = %16, %11, %5, %60, %.thread100
  %.06091 = phi i32 [ -1, %.thread100 ], [ 0, %60 ], [ -1, %5 ], [ -1, %11 ], [ -1, %16 ]
  ret i32 %.06091
}